; Function Attrs: nounwind uwtable
define ptr @l_Lean_Compiler_LCNF_PullFunDecls_addToPull___lambda__1___boxed(ptr noundef %0, ptr noundef %1, ptr noundef %2, ptr noundef %3, ptr noundef %4, ptr noundef %5, ptr noundef %6, ptr noundef %7, ptr noundef %8, ptr noundef %9, ptr noundef %10, ptr noundef %11) local_unnamed_addr #0 {
  %13 = ptrtoint ptr %2 to i64
  %14 = lshr i64 %13, 1
  %15 = trunc i64 %14 to i8
  %16 = and i64 %13, 1
  %.not = icmp eq i64 %16, 0
  br i1 %.not, label %17, label %lean_dec.exit25

17:                                               ; preds = %12
  %18 = load i32, ptr %2, align 4, !tbaa !4
  %19 = icmp sgt i32 %18, 1
  br i1 %19, label %20, label %22, !prof !11

20:                                               ; preds = %17
  %21 = add nsw i32 %18, -1
  store i32 %21, ptr %2, align 4, !tbaa !4
  br label %lean_dec.exit25

22:                                               ; preds = %17
  %.not.i = icmp eq i32 %18, 0
  br i1 %.not.i, label %lean_dec.exit25, label %23

23:                                               ; preds = %22
  tail call void @lean_dec_ref_cold(ptr noundef nonnull %2) #5
  br label %lean_dec.exit25

lean_dec.exit25:                                  ; preds = %23, %22, %20, %12
  %24 = tail call ptr @l_Lean_Compiler_LCNF_PullFunDecls_addToPull___lambda__1(ptr noundef %0, ptr noundef %1, i8 noundef zeroext %15, ptr noundef %3, ptr noundef %4, ptr poison, ptr noundef %6, ptr noundef %7, ptr noundef %8, ptr noundef %9, ptr noundef %10, ptr noundef %11)
  %25 = ptrtoint ptr %10 to i64
  %26 = and i64 %25, 1
  %.not38 = icmp eq i64 %26, 0
  br i1 %.not38, label %27, label %lean_dec.exit24

27:                                               ; preds = %lean_dec.exit25
  %28 = load i32, ptr %10, align 4, !tbaa !4
  %29 = icmp sgt i32 %28, 1
  br i1 %29, label %30, label %32, !prof !11

30:                                               ; preds = %27
  %31 = add nsw i32 %28, -1
  store i32 %31, ptr %10, align 4, !tbaa !4
  br label %lean_dec.exit24

32:                                               ; preds = %27
  %.not.i26 = icmp eq i32 %28, 0
  br i1 %.not.i26, label %lean_dec.exit24, label %33

33:                                               ; preds = %32
  tail call void @lean_dec_ref_cold(ptr noundef nonnull %10) #5
  br label %lean_dec.exit24

lean_dec.exit24:                                  ; preds = %33, %32, %30, %lean_dec.exit25
  %34 = ptrtoint ptr %9 to i64
  %35 = and i64 %34, 1
  %.not39 = icmp eq i64 %35, 0
  br i1 %.not39, label %36, label %lean_dec.exit23

36:                                               ; preds = %lean_dec.exit24
  %37 = load i32, ptr %9, align 4, !tbaa !4
  %38 = icmp sgt i32 %37, 1
  br i1 %38, label %39, label %41, !prof !11

39:                                               ; preds = %36
  %40 = add nsw i32 %37, -1
  store i32 %40, ptr %9, align 4, !tbaa !4
  br label %lean_dec.exit23

41:                                               ; preds = %36
  %.not.i28 = icmp eq i32 %37, 0
  br i1 %.not.i28, label %lean_dec.exit23, label %42

42:                                               ; preds = %41
  tail call void @lean_dec_ref_cold(ptr noundef nonnull %9) #5
  br label %lean_dec.exit23

lean_dec.exit23:                                  ; preds = %42, %41, %39, %lean_dec.exit24
  %43 = ptrtoint ptr %8 to i64
  %44 = and i64 %43, 1
  %.not40 = icmp eq i64 %44, 0
  br i1 %.not40, label %45, label %lean_dec.exit22

45:                                               ; preds = %lean_dec.exit23
  %46 = load i32, ptr %8, align 4, !tbaa !4
  %47 = icmp sgt i32 %46, 1
  br i1 %47, label %48, label %50, !prof !11

48:                                               ; preds = %45
  %49 = add nsw i32 %46, -1
  store i32 %49, ptr %8, align 4, !tbaa !4
  br label %lean_dec.exit22

50:                                               ; preds = %45
  %.not.i30 = icmp eq i32 %46, 0
  br i1 %.not.i30, label %lean_dec.exit22, label %51

51:                                               ; preds = %50
  tail call void @lean_dec_ref_cold(ptr noundef nonnull %8) #5
  br label %lean_dec.exit22

lean_dec.exit22:                                  ; preds = %51, %50, %48, %lean_dec.exit23
  %52 = ptrtoint ptr %7 to i64
  %53 = and i64 %52, 1
  %.not41 = icmp eq i64 %53, 0
  br i1 %.not41, label %54, label %lean_dec.exit21

54:                                               ; preds = %lean_dec.exit22
  %55 = load i32, ptr %7, align 4, !tbaa !4
  %56 = icmp sgt i32 %55, 1
  br i1 %56, label %57, label %59, !prof !11

57:                                               ; preds = %54
  %58 = add nsw i32 %55, -1
  store i32 %58, ptr %7, align 4, !tbaa !4
  br label %lean_dec.exit21

59:                                               ; preds = %54
  %.not.i32 = icmp eq i32 %55, 0
  br i1 %.not.i32, label %lean_dec.exit21, label %60

60:                                               ; preds = %59
  tail call void @lean_dec_ref_cold(ptr noundef nonnull %7) #5
  br label %lean_dec.exit21

lean_dec.exit21:                                  ; preds = %60, %59, %57, %lean_dec.exit22
  %61 = ptrtoint ptr %6 to i64
  %62 = and i64 %61, 1
  %.not42 = icmp eq i64 %62, 0
  br i1 %.not42, label %63, label %lean_dec.exit20

63:                                               ; preds = %lean_dec.exit21
  %64 = load i32, ptr %6, align 4, !tbaa !4
  %65 = icmp sgt i32 %64, 1
  br i1 %65, label %66, label %68, !prof !11

66:                                               ; preds = %63
  %67 = add nsw i32 %64, -1
  store i32 %67, ptr %6, align 4, !tbaa !4
  br label %lean_dec.exit20

68:                                               ; preds = %63
  %.not.i34 = icmp eq i32 %64, 0
  br i1 %.not.i34, label %lean_dec.exit20, label %69

69:                                               ; preds = %68
  tail call void @lean_dec_ref_cold(ptr noundef nonnull %6) #5
  br label %lean_dec.exit20

lean_dec.exit20:                                  ; preds = %69, %68, %66, %lean_dec.exit21
  %70 = ptrtoint ptr %5 to i64
  %71 = and i64 %70, 1
  %.not43 = icmp eq i64 %71, 0
  br i1 %.not43, label %72, label %lean_dec.exit

72:                                               ; preds = %lean_dec.exit20
  %73 = load i32, ptr %5, align 4, !tbaa !4
  %74 = icmp sgt i32 %73, 1
  br i1 %74, label %75, label %77, !prof !11

75:                                               ; preds = %72
  %76 = add nsw i32 %73, -1
  store i32 %76, ptr %5, align 4, !tbaa !4
  br label %lean_dec.exit

77:                                               ; preds = %72
  %.not.i36 = icmp eq i32 %73, 0
  br i1 %.not.i36, label %lean_dec.exit, label %78

78:                                               ; preds = %77
  tail call void @lean_dec_ref_cold(ptr noundef nonnull %5) #5
  br label %lean_dec.exit

lean_dec.exit:                                    ; preds = %78, %77, %75, %lean_dec.exit20
  ret ptr %24
}